target datalayout = "e-m:e-p270:32:32-p271:32:32-p272:64:64-i64:64-i128:128-f80:128-n8:16:32:64-S128"
target triple = "x86_64-pc-linux-gnu"

%"class.std::ios_base::Init" = type { i8 }
%"struct.std::_Vector_base" = type { %"struct.std::_Vector_base<mold::Counter *, std::allocator<mold::Counter *>>::_Vector_impl" }
%"struct.std::_Vector_base<mold::Counter *, std::allocator<mold::Counter *>>::_Vector_impl" = type { %"struct.std::_Vector_base<mold::Counter *, std::allocator<mold::Counter *>>::_Vector_impl_data" }
%"struct.std::_Vector_base<mold::Counter *, std::allocator<mold::Counter *>>::_Vector_impl_data" = type { ptr, ptr, ptr }
%"struct.mold::ElfPhdr" = type { %"class.mold::Integer", %"class.mold::Integer", %"class.mold::Integer.0", %"class.mold::Integer.0", %"class.mold::Integer.0", %"class.mold::Integer.0", %"class.mold::Integer.0", %"class.mold::Integer.0" }
%"class.mold::Integer" = type { [4 x i8] }
%"class.mold::Integer.0" = type { [8 x i8] }

$_ZN4mold7Counter9instancesE = comdat any

$_ZNSt6vectorIPN4mold7CounterESaIS2_EED2Ev = comdat any

$_ZN4mold11get_tp_addrINS_6X86_64EEEmRKNS_7ElfPhdrIT_EE = comdat any

$_ZN4mold8align_toEmm = comdat any

$_ZNK4mold7IntegerImLb1ELi8EEcvmEv = comdat any

$_ZN4mold12get_dtp_addrINS_6X86_64EEEmRKNS_7ElfPhdrIT_EE = comdat any

$_ZSt8_DestroyIPPN4mold7CounterES2_EvT_S4_RSaIT0_E = comdat any

$_ZNSt12_Vector_baseIPN4mold7CounterESaIS2_EE19_M_get_Tp_allocatorEv = comdat any

$_ZNSt12_Vector_baseIPN4mold7CounterESaIS2_EED2Ev = comdat any

$_ZSt8_DestroyIPPN4mold7CounterEEvT_S4_ = comdat any

$_ZNSt12_Destroy_auxILb1EE9__destroyIPPN4mold7CounterEEEvT_S6_ = comdat any

$_ZNSt12_Vector_baseIPN4mold7CounterESaIS2_EE13_M_deallocateEPS2_m = comdat any

$_ZNSaIPN4mold7CounterEED2Ev = comdat any

$_ZNSt16allocator_traitsISaIPN4mold7CounterEEE10deallocateERS3_PS2_m = comdat any

$_ZNSaIPN4mold7CounterEE10deallocateEPS1_m = comdat any

$_ZNSt15__new_allocatorIPN4mold7CounterEE10deallocateEPS2_m = comdat any

@_ZStL8__ioinit = internal global %"class.std::ios_base::Init" zeroinitializer, align 1
@__dso_handle = external hidden global i8
@_ZN4mold7Counter9instancesE = linkonce_odr dso_local global { { ptr, ptr, ptr } } zeroinitializer, comdat, align 8
@_ZGVN4mold7Counter9instancesE = linkonce_odr dso_local global i64 0, comdat($_ZN4mold7Counter9instancesE), align 8
@llvm.global_ctors = appending global [2 x { i32, ptr, ptr }] [{ i32, ptr, ptr } { i32 65535, ptr @__cxx_global_var_init.1, ptr @_ZN4mold7Counter9instancesE }, { i32, ptr, ptr } { i32 65535, ptr @_GLOBAL__sub_I_tls.cc.X86_64.cc, ptr null }]
@llvm.used = appending global [1 x ptr] [ptr @_ZN4mold7Counter9instancesE], section "llvm.metadata"

; Function Attrs: nounwind
define internal void @__cxx_global_var_init() #0 section ".text.startup" {
  call void @_ZNSt8ios_base4InitC1Ev(ptr noundef nonnull align 1 dereferenceable(1) @_ZStL8__ioinit)
  %1 = call i32 @__cxa_atexit(ptr @_ZNSt8ios_base4InitD1Ev, ptr @_ZStL8__ioinit, ptr @__dso_handle) #3
  ret void
}

declare void @_ZNSt8ios_base4InitC1Ev(ptr noundef nonnull align 1 dereferenceable(1)) unnamed_addr #1

; Function Attrs: nounwind
declare void @_ZNSt8ios_base4InitD1Ev(ptr noundef nonnull align 1 dereferenceable(1)) unnamed_addr #2

; Function Attrs: nounwind
declare i32 @__cxa_atexit(ptr, ptr, ptr) #3

; Function Attrs: nounwind
define internal void @__cxx_global_var_init.1() #0 section ".text.startup" comdat($_ZN4mold7Counter9instancesE) {
  %1 = load atomic i8, ptr @_ZGVN4mold7Counter9instancesE acquire, align 8
  %2 = icmp eq i8 %1, 0
  br i1 %2, label %3, label %8

3:                                                ; preds = %0
  %4 = call i32 @__cxa_guard_acquire(ptr @_ZGVN4mold7Counter9instancesE) #3
  %5 = icmp ne i32 %4, 0
  br i1 %5, label %6, label %8

6:                                                ; preds = %3
  %7 = call i32 @__cxa_atexit(ptr @_ZNSt6vectorIPN4mold7CounterESaIS2_EED2Ev, ptr @_ZN4mold7Counter9instancesE, ptr @__dso_handle) #3
  call void @__cxa_guard_release(ptr @_ZGVN4mold7Counter9instancesE) #3
  br label %8

8:                                                ; preds = %6, %3, %0
  ret void
}

; Function Attrs: nounwind
declare i32 @__cxa_guard_acquire(ptr) #3

; Function Attrs: mustprogress nounwind
define linkonce_odr dso_local void @_ZNSt6vectorIPN4mold7CounterESaIS2_EED2Ev(ptr noundef nonnull align 8 dereferenceable(24) %0) unnamed_addr #4 comdat align 2 {
  %2 = alloca ptr, align 8
  store ptr %0, ptr %2, align 8, !tbaa !3
  %3 = load ptr, ptr %2, align 8
  %4 = getelementptr inbounds nuw %"struct.std::_Vector_base", ptr %3, i32 0, i32 0
  %5 = getelementptr inbounds nuw %"struct.std::_Vector_base<mold::Counter *, std::allocator<mold::Counter *>>::_Vector_impl_data", ptr %4, i32 0, i32 0
  %6 = load ptr, ptr %5, align 8, !tbaa !8
  %7 = getelementptr inbounds nuw %"struct.std::_Vector_base", ptr %3, i32 0, i32 0
  %8 = getelementptr inbounds nuw %"struct.std::_Vector_base<mold::Counter *, std::allocator<mold::Counter *>>::_Vector_impl_data", ptr %7, i32 0, i32 1
  %9 = load ptr, ptr %8, align 8, !tbaa !12
  %10 = call noundef nonnull align 1 dereferenceable(1) ptr @_ZNSt12_Vector_baseIPN4mold7CounterESaIS2_EE19_M_get_Tp_allocatorEv(ptr noundef nonnull align 8 dereferenceable(24) %3) #3
  call void @_ZSt8_DestroyIPPN4mold7CounterES2_EvT_S4_RSaIT0_E(ptr noundef %6, ptr noundef %9, ptr noundef nonnull align 1 dereferenceable(1) %10)
  call void @_ZNSt12_Vector_baseIPN4mold7CounterESaIS2_EED2Ev(ptr noundef nonnull align 8 dereferenceable(24) %3) #3
  ret void
}

; Function Attrs: nounwind
declare void @__cxa_guard_release(ptr) #3

; Function Attrs: mustprogress nounwind
define weak_odr dso_local noundef i64 @_ZN4mold11get_tp_addrINS_6X86_64EEEmRKNS_7ElfPhdrIT_EE(ptr noundef nonnull align 1 dereferenceable(56) %0) #4 comdat {
  %2 = alloca ptr, align 8
  store ptr %0, ptr %2, align 8, !tbaa !13
  %3 = load ptr, ptr %2, align 8, !tbaa !13
  %4 = getelementptr inbounds nuw %"struct.mold::ElfPhdr", ptr %3, i32 0, i32 3
  %5 = call noundef i64 @_ZNK4mold7IntegerImLb1ELi8EEcvmEv(ptr noundef nonnull align 1 dereferenceable(8) %4)
  %6 = load ptr, ptr %2, align 8, !tbaa !13
  %7 = getelementptr inbounds nuw %"struct.mold::ElfPhdr", ptr %6, i32 0, i32 6
  %8 = call noundef i64 @_ZNK4mold7IntegerImLb1ELi8EEcvmEv(ptr noundef nonnull align 1 dereferenceable(8) %7)
  %9 = add i64 %5, %8
  %10 = load ptr, ptr %2, align 8, !tbaa !13
  %11 = getelementptr inbounds nuw %"struct.mold::ElfPhdr", ptr %10, i32 0, i32 7
  %12 = call noundef i64 @_ZNK4mold7IntegerImLb1ELi8EEcvmEv(ptr noundef nonnull align 1 dereferenceable(8) %11)
  %13 = call noundef i64 @_ZN4mold8align_toEmm(i64 noundef %9, i64 noundef %12)
  ret i64 %13
}

; Function Attrs: inlinehint mustprogress nounwind
define linkonce_odr dso_local noundef i64 @_ZN4mold8align_toEmm(i64 noundef %0, i64 noundef %1) #5 comdat {
  %3 = alloca i64, align 8
  %4 = alloca i64, align 8
  %5 = alloca i64, align 8
  store i64 %0, ptr %4, align 8, !tbaa !15
  store i64 %1, ptr %5, align 8, !tbaa !15
  %6 = load i64, ptr %5, align 8, !tbaa !15
  %7 = icmp eq i64 %6, 0
  br i1 %7, label %8, label %10

8:                                                ; preds = %2
  %9 = load i64, ptr %4, align 8, !tbaa !15
  store i64 %9, ptr %3, align 8
  br label %19

10:                                               ; preds = %2
  %11 = load i64, ptr %4, align 8, !tbaa !15
  %12 = load i64, ptr %5, align 8, !tbaa !15
  %13 = add i64 %11, %12
  %14 = sub i64 %13, 1
  %15 = load i64, ptr %5, align 8, !tbaa !15
  %16 = sub i64 %15, 1
  %17 = xor i64 %16, -1
  %18 = and i64 %14, %17
  store i64 %18, ptr %3, align 8
  br label %19

19:                                               ; preds = %10, %8
  %20 = load i64, ptr %3, align 8
  ret i64 %20
}

; Function Attrs: mustprogress nounwind
define linkonce_odr dso_local noundef i64 @_ZNK4mold7IntegerImLb1ELi8EEcvmEv(ptr noundef nonnull align 1 dereferenceable(8) %0) #4 comdat align 2 {
  %2 = alloca ptr, align 8
  store ptr %0, ptr %2, align 8, !tbaa !17
  %3 = load ptr, ptr %2, align 8
  %4 = getelementptr inbounds nuw %"class.mold::Integer.0", ptr %3, i32 0, i32 0
  %5 = getelementptr inbounds [8 x i8], ptr %4, i64 0, i64 7
  %6 = load i8, ptr %5, align 1, !tbaa !19
  %7 = zext i8 %6 to i64
  %8 = shl i64 %7, 56
  %9 = getelementptr inbounds nuw %"class.mold::Integer.0", ptr %3, i32 0, i32 0
  %10 = getelementptr inbounds [8 x i8], ptr %9, i64 0, i64 6
  %11 = load i8, ptr %10, align 1, !tbaa !19
  %12 = zext i8 %11 to i64
  %13 = shl i64 %12, 48
  %14 = or i64 %8, %13
  %15 = getelementptr inbounds nuw %"class.mold::Integer.0", ptr %3, i32 0, i32 0
  %16 = getelementptr inbounds [8 x i8], ptr %15, i64 0, i64 5
  %17 = load i8, ptr %16, align 1, !tbaa !19
  %18 = zext i8 %17 to i64
  %19 = shl i64 %18, 40
  %20 = or i64 %14, %19
  %21 = getelementptr inbounds nuw %"class.mold::Integer.0", ptr %3, i32 0, i32 0
  %22 = getelementptr inbounds [8 x i8], ptr %21, i64 0, i64 4
  %23 = load i8, ptr %22, align 1, !tbaa !19
  %24 = zext i8 %23 to i64
  %25 = shl i64 %24, 32
  %26 = or i64 %20, %25
  %27 = getelementptr inbounds nuw %"class.mold::Integer.0", ptr %3, i32 0, i32 0
  %28 = getelementptr inbounds [8 x i8], ptr %27, i64 0, i64 3
  %29 = load i8, ptr %28, align 1, !tbaa !19
  %30 = zext i8 %29 to i64
  %31 = shl i64 %30, 24
  %32 = or i64 %26, %31
  %33 = getelementptr inbounds nuw %"class.mold::Integer.0", ptr %3, i32 0, i32 0
  %34 = getelementptr inbounds [8 x i8], ptr %33, i64 0, i64 2
  %35 = load i8, ptr %34, align 1, !tbaa !19
  %36 = zext i8 %35 to i64
  %37 = shl i64 %36, 16
  %38 = or i64 %32, %37
  %39 = getelementptr inbounds nuw %"class.mold::Integer.0", ptr %3, i32 0, i32 0
  %40 = getelementptr inbounds [8 x i8], ptr %39, i64 0, i64 1
  %41 = load i8, ptr %40, align 1, !tbaa !19
  %42 = zext i8 %41 to i64
  %43 = shl i64 %42, 8
  %44 = or i64 %38, %43
  %45 = getelementptr inbounds nuw %"class.mold::Integer.0", ptr %3, i32 0, i32 0
  %46 = getelementptr inbounds [8 x i8], ptr %45, i64 0, i64 0
  %47 = load i8, ptr %46, align 1, !tbaa !19
  %48 = zext i8 %47 to i64
  %49 = or i64 %44, %48
  ret i64 %49
}

; Function Attrs: mustprogress nounwind
define weak_odr dso_local noundef i64 @_ZN4mold12get_dtp_addrINS_6X86_64EEEmRKNS_7ElfPhdrIT_EE(ptr noundef nonnull align 1 dereferenceable(56) %0) #4 comdat {
  %2 = alloca ptr, align 8
  store ptr %0, ptr %2, align 8, !tbaa !13
  %3 = load ptr, ptr %2, align 8, !tbaa !13
  %4 = getelementptr inbounds nuw %"struct.mold::ElfPhdr", ptr %3, i32 0, i32 3
  %5 = call noundef i64 @_ZNK4mold7IntegerImLb1ELi8EEcvmEv(ptr noundef nonnull align 1 dereferenceable(8) %4)
  ret i64 %5
}

; Function Attrs: inlinehint mustprogress nounwind
define linkonce_odr dso_local void @_ZSt8_DestroyIPPN4mold7CounterES2_EvT_S4_RSaIT0_E(ptr noundef %0, ptr noundef %1, ptr noundef nonnull align 1 dereferenceable(1) %2) #5 comdat {
  %4 = alloca ptr, align 8
  %5 = alloca ptr, align 8
  %6 = alloca ptr, align 8
  store ptr %0, ptr %4, align 8, !tbaa !20
  store ptr %1, ptr %5, align 8, !tbaa !20
  store ptr %2, ptr %6, align 8, !tbaa !21
  %7 = load ptr, ptr %4, align 8, !tbaa !20
  %8 = load ptr, ptr %5, align 8, !tbaa !20
  call void @_ZSt8_DestroyIPPN4mold7CounterEEvT_S4_(ptr noundef %7, ptr noundef %8)
  ret void
}

; Function Attrs: mustprogress nounwind
define linkonce_odr dso_local noundef nonnull align 1 dereferenceable(1) ptr @_ZNSt12_Vector_baseIPN4mold7CounterESaIS2_EE19_M_get_Tp_allocatorEv(ptr noundef nonnull align 8 dereferenceable(24) %0) #4 comdat align 2 {
  %2 = alloca ptr, align 8
  store ptr %0, ptr %2, align 8, !tbaa !23
  %3 = load ptr, ptr %2, align 8
  %4 = getelementptr inbounds nuw %"struct.std::_Vector_base", ptr %3, i32 0, i32 0
  ret ptr %4
}

; Function Attrs: mustprogress nounwind
define linkonce_odr dso_local void @_ZNSt12_Vector_baseIPN4mold7CounterESaIS2_EED2Ev(ptr noundef nonnull align 8 dereferenceable(24) %0) unnamed_addr #4 comdat align 2 {
  %2 = alloca ptr, align 8
  store ptr %0, ptr %2, align 8, !tbaa !23
  %3 = load ptr, ptr %2, align 8
  %4 = getelementptr inbounds nuw %"struct.std::_Vector_base", ptr %3, i32 0, i32 0
  %5 = getelementptr inbounds nuw %"struct.std::_Vector_base<mold::Counter *, std::allocator<mold::Counter *>>::_Vector_impl_data", ptr %4, i32 0, i32 0
  %6 = load ptr, ptr %5, align 8, !tbaa !8
  %7 = getelementptr inbounds nuw %"struct.std::_Vector_base", ptr %3, i32 0, i32 0
  %8 = getelementptr inbounds nuw %"struct.std::_Vector_base<mold::Counter *, std::allocator<mold::Counter *>>::_Vector_impl_data", ptr %7, i32 0, i32 2
  %9 = load ptr, ptr %8, align 8, !tbaa !25
  %10 = getelementptr inbounds nuw %"struct.std::_Vector_base", ptr %3, i32 0, i32 0
  %11 = getelementptr inbounds nuw %"struct.std::_Vector_base<mold::Counter *, std::allocator<mold::Counter *>>::_Vector_impl_data", ptr %10, i32 0, i32 0
  %12 = load ptr, ptr %11, align 8, !tbaa !8
  %13 = ptrtoint ptr %9 to i64
  %14 = ptrtoint ptr %12 to i64
  %15 = sub i64 %13, %14
  %16 = sdiv exact i64 %15, 8
  call void @_ZNSt12_Vector_baseIPN4mold7CounterESaIS2_EE13_M_deallocateEPS2_m(ptr noundef nonnull align 8 dereferenceable(24) %3, ptr noundef %6, i64 noundef %16)
  %17 = getelementptr inbounds nuw %"struct.std::_Vector_base", ptr %3, i32 0, i32 0
  call void @_ZNSaIPN4mold7CounterEED2Ev(ptr noundef nonnull align 8 dereferenceable(24) %17) #3
  ret void
}

; Function Attrs: inlinehint mustprogress nounwind
define linkonce_odr dso_local void @_ZSt8_DestroyIPPN4mold7CounterEEvT_S4_(ptr noundef %0, ptr noundef %1) #5 comdat {
  %3 = alloca ptr, align 8
  %4 = alloca ptr, align 8
  store ptr %0, ptr %3, align 8, !tbaa !20
  store ptr %1, ptr %4, align 8, !tbaa !20
  %5 = load ptr, ptr %3, align 8, !tbaa !20
  %6 = load ptr, ptr %4, align 8, !tbaa !20
  call void @_ZNSt12_Destroy_auxILb1EE9__destroyIPPN4mold7CounterEEEvT_S6_(ptr noundef %5, ptr noundef %6)
  ret void
}

; Function Attrs: mustprogress nounwind
define linkonce_odr dso_local void @_ZNSt12_Destroy_auxILb1EE9__destroyIPPN4mold7CounterEEEvT_S6_(ptr noundef %0, ptr noundef %1) #4 comdat align 2 {
  %3 = alloca ptr, align 8
  %4 = alloca ptr, align 8
  store ptr %0, ptr %3, align 8, !tbaa !20
  store ptr %1, ptr %4, align 8, !tbaa !20
  ret void
}

; Function Attrs: mustprogress nounwind
define linkonce_odr dso_local void @_ZNSt12_Vector_baseIPN4mold7CounterESaIS2_EE13_M_deallocateEPS2_m(ptr noundef nonnull align 8 dereferenceable(24) %0, ptr noundef %1, i64 noundef %2) #4 comdat align 2 {
  %4 = alloca ptr, align 8
  %5 = alloca ptr, align 8
  %6 = alloca i64, align 8
  store ptr %0, ptr %4, align 8, !tbaa !23
  store ptr %1, ptr %5, align 8, !tbaa !20
  store i64 %2, ptr %6, align 8, !tbaa !15
  %7 = load ptr, ptr %4, align 8
  %8 = load ptr, ptr %5, align 8, !tbaa !20
  %9 = icmp ne ptr %8, null
  br i1 %9, label %10, label %14

10:                                               ; preds = %3
  %11 = getelementptr inbounds nuw %"struct.std::_Vector_base", ptr %7, i32 0, i32 0
  %12 = load ptr, ptr %5, align 8, !tbaa !20
  %13 = load i64, ptr %6, align 8, !tbaa !15
  call void @_ZNSt16allocator_traitsISaIPN4mold7CounterEEE10deallocateERS3_PS2_m(ptr noundef nonnull align 1 dereferenceable(1) %11, ptr noundef %12, i64 noundef %13)
  br label %14

14:                                               ; preds = %10, %3
  ret void
}

; Function Attrs: mustprogress nounwind
define linkonce_odr dso_local void @_ZNSaIPN4mold7CounterEED2Ev(ptr noundef nonnull align 1 dereferenceable(1) %0) unnamed_addr #4 comdat align 2 {
  %2 = alloca ptr, align 8
  store ptr %0, ptr %2, align 8, !tbaa !21
  ret void
}

; Function Attrs: mustprogress nounwind
define linkonce_odr dso_local void @_ZNSt16allocator_traitsISaIPN4mold7CounterEEE10deallocateERS3_PS2_m(ptr noundef nonnull align 1 dereferenceable(1) %0, ptr noundef %1, i64 noundef %2) #4 comdat align 2 {
  %4 = alloca ptr, align 8
  %5 = alloca ptr, align 8
  %6 = alloca i64, align 8
  store ptr %0, ptr %4, align 8, !tbaa !21
  store ptr %1, ptr %5, align 8, !tbaa !20
  store i64 %2, ptr %6, align 8, !tbaa !15
  %7 = load ptr, ptr %4, align 8, !tbaa !21
  %8 = load ptr, ptr %5, align 8, !tbaa !20
  %9 = load i64, ptr %6, align 8, !tbaa !15
  call void @_ZNSaIPN4mold7CounterEE10deallocateEPS1_m(ptr noundef nonnull align 1 dereferenceable(1) %7, ptr noundef %8, i64 noundef %9)
  ret void
}

; Function Attrs: alwaysinline mustprogress nounwind
define linkonce_odr dso_local void @_ZNSaIPN4mold7CounterEE10deallocateEPS1_m(ptr noundef nonnull align 1 dereferenceable(1) %0, ptr noundef %1, i64 noundef %2) #6 comdat align 2 {
  %4 = alloca ptr, align 8
  %5 = alloca ptr, align 8
  %6 = alloca i64, align 8
  store ptr %0, ptr %4, align 8, !tbaa !21
  store ptr %1, ptr %5, align 8, !tbaa !20
  store i64 %2, ptr %6, align 8, !tbaa !15
  %7 = load ptr, ptr %4, align 8
  %8 = load ptr, ptr %5, align 8, !tbaa !20
  %9 = load i64, ptr %6, align 8, !tbaa !15
  call void @_ZNSt15__new_allocatorIPN4mold7CounterEE10deallocateEPS2_m(ptr noundef nonnull align 1 dereferenceable(1) %7, ptr noundef %8, i64 noundef %9)
  ret void
}

; Function Attrs: mustprogress nounwind
define linkonce_odr dso_local void @_ZNSt15__new_allocatorIPN4mold7CounterEE10deallocateEPS2_m(ptr noundef nonnull align 1 dereferenceable(1) %0, ptr noundef %1, i64 noundef %2) #4 comdat align 2 {
  %4 = alloca ptr, align 8
  %5 = alloca ptr, align 8
  %6 = alloca i64, align 8
  store ptr %0, ptr %4, align 8, !tbaa !26
  store ptr %1, ptr %5, align 8, !tbaa !20
  store i64 %2, ptr %6, align 8, !tbaa !15
  %7 = load ptr, ptr %5, align 8, !tbaa !20
  %8 = load i64, ptr %6, align 8, !tbaa !15
  %9 = mul i64 %8, 8
  call void @_ZdlPvm(ptr noundef %7, i64 noundef %9) #8
  ret void
}

; Function Attrs: nobuiltin nounwind
declare void @_ZdlPvm(ptr noundef, i64 noundef) #7

; Function Attrs: nounwind
define internal void @_GLOBAL__sub_I_tls.cc.X86_64.cc() #0 section ".text.startup" {
  call void @__cxx_global_var_init()
  ret void
}


!llvm.linker.options = !{}
!llvm.module.flags = !{!0, !1, !2}

!0 = !{i32 1, !"wchar_size", i32 4}
!1 = !{i32 8, !"PIC Level", i32 2}
!2 = !{i32 7, !"PIE Level", i32 2}
!3 = !{!4, !4, i64 0}
!4 = !{!"p1 _ZTSSt6vectorIPN4mold7CounterESaIS2_EE", !5, i64 0}
!5 = !{!"any pointer", !6, i64 0}
!6 = !{!"omnipotent char", !7, i64 0}
!7 = !{!"Simple C++ TBAA"}
!8 = !{!9, !10, i64 0}
!9 = !{!"_ZTSNSt12_Vector_baseIPN4mold7CounterESaIS2_EE17_Vector_impl_dataE", !10, i64 0, !10, i64 8, !10, i64 16}
!10 = !{!"p2 _ZTSN4mold7CounterE", !11, i64 0}
!11 = !{!"any p2 pointer", !5, i64 0}
!12 = !{!9, !10, i64 8}
!13 = !{!14, !14, i64 0}
!14 = !{!"p1 _ZTSN4mold7ElfPhdrINS_6X86_64EEE", !5, i64 0}
!15 = !{!16, !16, i64 0}
!16 = !{!"long", !6, i64 0}
!17 = !{!18, !18, i64 0}
!18 = !{!"p1 _ZTSN4mold7IntegerImLb1ELi8EEE", !5, i64 0}
!19 = !{!6, !6, i64 0}
!20 = !{!10, !10, i64 0}
!21 = !{!22, !22, i64 0}
!22 = !{!"p1 _ZTSSaIPN4mold7CounterEE", !5, i64 0}
!23 = !{!24, !24, i64 0}
!24 = !{!"p1 _ZTSSt12_Vector_baseIPN4mold7CounterESaIS2_EE", !5, i64 0}
!25 = !{!9, !10, i64 16}
!26 = !{!27, !27, i64 0}
!27 = !{!"p1 _ZTSSt15__new_allocatorIPN4mold7CounterEE", !5, i64 0}
